; ModuleID = '14/739.c'
source_filename = "14/739.c"
target datalayout = "e-m:e-p270:32:32-p271:32:32-p272:64:64-i64:64-f80:128-n8:16:32:64-S128"
target triple = "x86_64-pc-linux-gnu"

%struct.student = type { i32, i32, i32 }

@.str = private unnamed_addr constant [3 x i8] c"%d\00", align 1
@.str.1 = private unnamed_addr constant [7 x i8] c"%d%d%d\00", align 1
@stu = common dso_local global [100000 x %struct.student] zeroinitializer, align 16
@sum = common dso_local global [100000 x i32] zeroinitializer, align 16
@.str.2 = private unnamed_addr constant [7 x i8] c"%d %d\0A\00", align 1

; Function Attrs: noinline nounwind uwtable
define dso_local i32 @main(i32 %0, i8** %1) #0 {
  %3 = alloca i32, align 4
  %4 = alloca i32, align 4
  %5 = alloca i8**, align 8
  %6 = alloca i32, align 4
  %7 = alloca i32, align 4
  %8 = alloca i32, align 4
  %9 = alloca i32, align 4
  %10 = alloca i32, align 4
  %11 = alloca i32, align 4
  %12 = alloca i32, align 4
  %13 = alloca i32, align 4
  store i32 0, i32* %3, align 4
  store i32 %0, i32* %4, align 4
  store i8** %1, i8*** %5, align 8
  %14 = call i32 (i8*, ...) @__isoc99_scanf(i8* getelementptr inbounds ([3 x i8], [3 x i8]* @.str, i64 0, i64 0), i32* %13)
  store i32 0, i32* %12, align 4
  br label %15

15:                                               ; preds = %33, %2
  %16 = load i32, i32* %12, align 4
  %17 = load i32, i32* %13, align 4
  %18 = icmp slt i32 %16, %17
  br i1 %18, label %19, label %36

19:                                               ; preds = %15
  %20 = load i32, i32* %12, align 4
  %21 = sext i32 %20 to i64
  %22 = getelementptr inbounds [100000 x %struct.student], [100000 x %struct.student]* @stu, i64 0, i64 %21
  %23 = getelementptr inbounds %struct.student, %struct.student* %22, i32 0, i32 0
  %24 = load i32, i32* %12, align 4
  %25 = sext i32 %24 to i64
  %26 = getelementptr inbounds [100000 x %struct.student], [100000 x %struct.student]* @stu, i64 0, i64 %25
  %27 = getelementptr inbounds %struct.student, %struct.student* %26, i32 0, i32 1
  %28 = load i32, i32* %12, align 4
  %29 = sext i32 %28 to i64
  %30 = getelementptr inbounds [100000 x %struct.student], [100000 x %struct.student]* @stu, i64 0, i64 %29
  %31 = getelementptr inbounds %struct.student, %struct.student* %30, i32 0, i32 2
  %32 = call i32 (i8*, ...) @__isoc99_scanf(i8* getelementptr inbounds ([7 x i8], [7 x i8]* @.str.1, i64 0, i64 0), i32* %23, i32* %27, i32* %31)
  br label %33

33:                                               ; preds = %19
  %34 = load i32, i32* %12, align 4
  %35 = add nsw i32 %34, 1
  store i32 %35, i32* %12, align 4
  br label %15

36:                                               ; preds = %15
  store i32 0, i32* %12, align 4
  br label %37

37:                                               ; preds = %56, %36
  %38 = load i32, i32* %12, align 4
  %39 = load i32, i32* %13, align 4
  %40 = icmp slt i32 %38, %39
  br i1 %40, label %41, label %59

41:                                               ; preds = %37
  %42 = load i32, i32* %12, align 4
  %43 = sext i32 %42 to i64
  %44 = getelementptr inbounds [100000 x %struct.student], [100000 x %struct.student]* @stu, i64 0, i64 %43
  %45 = getelementptr inbounds %struct.student, %struct.student* %44, i32 0, i32 1
  %46 = load i32, i32* %45, align 4
  %47 = load i32, i32* %12, align 4
  %48 = sext i32 %47 to i64
  %49 = getelementptr inbounds [100000 x %struct.student], [100000 x %struct.student]* @stu, i64 0, i64 %48
  %50 = getelementptr inbounds %struct.student, %struct.student* %49, i32 0, i32 2
  %51 = load i32, i32* %50, align 4
  %52 = add nsw i32 %46, %51
  %53 = load i32, i32* %12, align 4
  %54 = sext i32 %53 to i64
  %55 = getelementptr inbounds [100000 x i32], [100000 x i32]* @sum, i64 0, i64 %54
  store i32 %52, i32* %55, align 4
  br label %56

56:                                               ; preds = %41
  %57 = load i32, i32* %12, align 4
  %58 = add nsw i32 %57, 1
  store i32 %58, i32* %12, align 4
  br label %37

59:                                               ; preds = %37
  %60 = load i32, i32* getelementptr inbounds ([100000 x i32], [100000 x i32]* @sum, i64 0, i64 0), align 16
  store i32 %60, i32* %6, align 4
  store i32 1, i32* %9, align 4
  %61 = load i32, i32* %6, align 4
  %62 = load i32, i32* getelementptr inbounds ([100000 x i32], [100000 x i32]* @sum, i64 0, i64 1), align 4
  %63 = icmp slt i32 %61, %62
  br i1 %63, label %64, label %68

64:                                               ; preds = %59
  %65 = load i32, i32* %6, align 4
  store i32 %65, i32* %7, align 4
  %66 = load i32, i32* %9, align 4
  store i32 %66, i32* %10, align 4
  %67 = load i32, i32* getelementptr inbounds ([100000 x i32], [100000 x i32]* @sum, i64 0, i64 1), align 4
  store i32 %67, i32* %6, align 4
  store i32 2, i32* %9, align 4
  br label %70

68:                                               ; preds = %59
  %69 = load i32, i32* getelementptr inbounds ([100000 x i32], [100000 x i32]* @sum, i64 0, i64 1), align 4
  store i32 %69, i32* %7, align 4
  store i32 2, i32* %10, align 4
  br label %70

70:                                               ; preds = %68, %64
  store i32 0, i32* %8, align 4
  store i32 2, i32* %12, align 4
  br label %71

71:                                               ; preds = %126, %70
  %72 = load i32, i32* %12, align 4
  %73 = load i32, i32* %13, align 4
  %74 = icmp slt i32 %72, %73
  br i1 %74, label %75, label %129

75:                                               ; preds = %71
  %76 = load i32, i32* %6, align 4
  %77 = load i32, i32* %12, align 4
  %78 = sext i32 %77 to i64
  %79 = getelementptr inbounds [100000 x i32], [100000 x i32]* @sum, i64 0, i64 %78
  %80 = load i32, i32* %79, align 4
  %81 = icmp slt i32 %76, %80
  br i1 %81, label %82, label %93

82:                                               ; preds = %75
  %83 = load i32, i32* %7, align 4
  store i32 %83, i32* %8, align 4
  %84 = load i32, i32* %10, align 4
  store i32 %84, i32* %11, align 4
  %85 = load i32, i32* %6, align 4
  store i32 %85, i32* %7, align 4
  %86 = load i32, i32* %9, align 4
  store i32 %86, i32* %10, align 4
  %87 = load i32, i32* %12, align 4
  %88 = sext i32 %87 to i64
  %89 = getelementptr inbounds [100000 x i32], [100000 x i32]* @sum, i64 0, i64 %88
  %90 = load i32, i32* %89, align 4
  store i32 %90, i32* %6, align 4
  %91 = load i32, i32* %12, align 4
  %92 = add nsw i32 %91, 1
  store i32 %92, i32* %9, align 4
  br label %125

93:                                               ; preds = %75
  %94 = load i32, i32* %7, align 4
  %95 = load i32, i32* %12, align 4
  %96 = sext i32 %95 to i64
  %97 = getelementptr inbounds [100000 x i32], [100000 x i32]* @sum, i64 0, i64 %96
  %98 = load i32, i32* %97, align 4
  %99 = icmp slt i32 %94, %98
  br i1 %99, label %100, label %109

100:                                              ; preds = %93
  %101 = load i32, i32* %7, align 4
  store i32 %101, i32* %8, align 4
  %102 = load i32, i32* %10, align 4
  store i32 %102, i32* %11, align 4
  %103 = load i32, i32* %12, align 4
  %104 = sext i32 %103 to i64
  %105 = getelementptr inbounds [100000 x i32], [100000 x i32]* @sum, i64 0, i64 %104
  %106 = load i32, i32* %105, align 4
  store i32 %106, i32* %7, align 4
  %107 = load i32, i32* %12, align 4
  %108 = add nsw i32 %107, 1
  store i32 %108, i32* %10, align 4
  br label %124

109:                                              ; preds = %93
  %110 = load i32, i32* %8, align 4
  %111 = load i32, i32* %12, align 4
  %112 = sext i32 %111 to i64
  %113 = getelementptr inbounds [100000 x i32], [100000 x i32]* @sum, i64 0, i64 %112
  %114 = load i32, i32* %113, align 4
  %115 = icmp slt i32 %110, %114
  br i1 %115, label %116, label %123

116:                                              ; preds = %109
  %117 = load i32, i32* %12, align 4
  %118 = sext i32 %117 to i64
  %119 = getelementptr inbounds [100000 x i32], [100000 x i32]* @sum, i64 0, i64 %118
  %120 = load i32, i32* %119, align 4
  store i32 %120, i32* %8, align 4
  %121 = load i32, i32* %12, align 4
  %122 = add nsw i32 %121, 1
  store i32 %122, i32* %11, align 4
  br label %123

123:                                              ; preds = %116, %109
  br label %124

124:                                              ; preds = %123, %100
  br label %125

125:                                              ; preds = %124, %82
  br label %126

126:                                              ; preds = %125
  %127 = load i32, i32* %12, align 4
  %128 = add nsw i32 %127, 1
  store i32 %128, i32* %12, align 4
  br label %71

129:                                              ; preds = %71
  %130 = load i32, i32* %9, align 4
  %131 = load i32, i32* %6, align 4
  %132 = call i32 (i8*, ...) @printf(i8* getelementptr inbounds ([7 x i8], [7 x i8]* @.str.2, i64 0, i64 0), i32 %130, i32 %131)
  %133 = load i32, i32* %10, align 4
  %134 = load i32, i32* %7, align 4
  %135 = call i32 (i8*, ...) @printf(i8* getelementptr inbounds ([7 x i8], [7 x i8]* @.str.2, i64 0, i64 0), i32 %133, i32 %134)
  %136 = load i32, i32* %11, align 4
  %137 = load i32, i32* %8, align 4
  %138 = call i32 (i8*, ...) @printf(i8* getelementptr inbounds ([7 x i8], [7 x i8]* @.str.2, i64 0, i64 0), i32 %136, i32 %137)
  ret i32 0
}

declare dso_local i32 @__isoc99_scanf(i8*, ...) #1

declare dso_local i32 @printf(i8*, ...) #1


!llvm.module.flags = !{!0}
!llvm.ident = !{!1}

!0 = !{i32 1, !"wchar_size", i32 4}
!1 = !{!"clang version 10.0.0-4ubuntu1 "}
